target datalayout = "e-m:e-p270:32:32-p271:32:32-p272:64:64-i64:64-i128:128-f80:128-n8:16:32:64-S128"
target triple = "x86_64-pc-linux-gnu"

@.str.3 = private unnamed_addr constant [6 x i8] c"%02ld\00", align 1
@.str.4 = private unnamed_addr constant [7 x i8] c":%02ld\00", align 1
@.str.5 = private unnamed_addr constant [9 x i8] c"<-%s>+%s\00", align 1
@.str.6 = private unnamed_addr constant [9 x i8] c"<+%s>-%s\00", align 1

; Function Attrs: nounwind uwtable
define dso_local ptr @pg_tzset_offset(i64 noundef %0) #0 {
  %2 = alloca i64, align 8
  %3 = alloca i64, align 8
  %4 = alloca [64 x i8], align 16
  %5 = alloca [128 x i8], align 16
  store i64 %0, ptr %2, align 8
  call void @llvm.lifetime.start.p0(i64 8, ptr %3) #7
  %6 = load i64, ptr %2, align 8
  %7 = icmp slt i64 %6, 0
  br i1 %7, label %8, label %11

8:                                                ; preds = %1
  %9 = load i64, ptr %2, align 8
  %10 = sub i64 0, %9
  br label %13

11:                                               ; preds = %1
  %12 = load i64, ptr %2, align 8
  br label %13

13:                                               ; preds = %11, %8
  %14 = phi i64 [ %10, %8 ], [ %12, %11 ]
  store i64 %14, ptr %3, align 8
  call void @llvm.lifetime.start.p0(i64 64, ptr %4) #7
  call void @llvm.lifetime.start.p0(i64 128, ptr %5) #7
  %15 = getelementptr inbounds [64 x i8], ptr %4, i64 0, i64 0
  %16 = load i64, ptr %3, align 8
  %17 = sdiv i64 %16, 3600
  %18 = call i32 (ptr, i64, ptr, ...) @pg_snprintf(ptr noundef %15, i64 noundef 64, ptr noundef @.str.3, i64 noundef %17)
  %19 = load i64, ptr %3, align 8
  %20 = srem i64 %19, 3600
  store i64 %20, ptr %3, align 8
  %21 = load i64, ptr %3, align 8
  %22 = icmp ne i64 %21, 0
  br i1 %22, label %23, label %49

23:                                               ; preds = %13
  %24 = getelementptr inbounds [64 x i8], ptr %4, i64 0, i64 0
  %25 = getelementptr inbounds [64 x i8], ptr %4, i64 0, i64 0
  %26 = call i64 @strlen(ptr noundef %25) #8
  %27 = getelementptr inbounds nuw i8, ptr %24, i64 %26
  %28 = getelementptr inbounds [64 x i8], ptr %4, i64 0, i64 0
  %29 = call i64 @strlen(ptr noundef %28) #8
  %30 = sub i64 64, %29
  %31 = load i64, ptr %3, align 8
  %32 = sdiv i64 %31, 60
  %33 = call i32 (ptr, i64, ptr, ...) @pg_snprintf(ptr noundef %27, i64 noundef %30, ptr noundef @.str.4, i64 noundef %32)
  %34 = load i64, ptr %3, align 8
  %35 = srem i64 %34, 60
  store i64 %35, ptr %3, align 8
  %36 = load i64, ptr %3, align 8
  %37 = icmp ne i64 %36, 0
  br i1 %37, label %38, label %48

38:                                               ; preds = %23
  %39 = getelementptr inbounds [64 x i8], ptr %4, i64 0, i64 0
  %40 = getelementptr inbounds [64 x i8], ptr %4, i64 0, i64 0
  %41 = call i64 @strlen(ptr noundef %40) #8
  %42 = getelementptr inbounds nuw i8, ptr %39, i64 %41
  %43 = getelementptr inbounds [64 x i8], ptr %4, i64 0, i64 0
  %44 = call i64 @strlen(ptr noundef %43) #8
  %45 = sub i64 64, %44
  %46 = load i64, ptr %3, align 8
  %47 = call i32 (ptr, i64, ptr, ...) @pg_snprintf(ptr noundef %42, i64 noundef %45, ptr noundef @.str.4, i64 noundef %46)
  br label %48

48:                                               ; preds = %38, %23
  br label %49

49:                                               ; preds = %48, %13
  %50 = load i64, ptr %2, align 8
  %51 = icmp sgt i64 %50, 0
  br i1 %51, label %52, label %57

52:                                               ; preds = %49
  %53 = getelementptr inbounds [128 x i8], ptr %5, i64 0, i64 0
  %54 = getelementptr inbounds [64 x i8], ptr %4, i64 0, i64 0
  %55 = getelementptr inbounds [64 x i8], ptr %4, i64 0, i64 0
  %56 = call i32 (ptr, i64, ptr, ...) @pg_snprintf(ptr noundef %53, i64 noundef 128, ptr noundef @.str.5, ptr noundef %54, ptr noundef %55)
  br label %62

57:                                               ; preds = %49
  %58 = getelementptr inbounds [128 x i8], ptr %5, i64 0, i64 0
  %59 = getelementptr inbounds [64 x i8], ptr %4, i64 0, i64 0
  %60 = getelementptr inbounds [64 x i8], ptr %4, i64 0, i64 0
  %61 = call i32 (ptr, i64, ptr, ...) @pg_snprintf(ptr noundef %58, i64 noundef 128, ptr noundef @.str.6, ptr noundef %59, ptr noundef %60)
  br label %62

62:                                               ; preds = %57, %52
  %63 = getelementptr inbounds [128 x i8], ptr %5, i64 0, i64 0
  %64 = call ptr @pg_tzset(ptr noundef %63)
  call void @llvm.lifetime.end.p0(i64 128, ptr %5) #7
  call void @llvm.lifetime.end.p0(i64 64, ptr %4) #7
  call void @llvm.lifetime.end.p0(i64 8, ptr %3) #7
  ret ptr %64
}