; Function Attrs: nounwind uwtable
define dso_local ptr @pg_tzset_offset(i64 noundef %0) local_unnamed_addr #0 {
  %2 = alloca [64 x i8], align 16
  %3 = alloca [128 x i8], align 16
  %4 = tail call i64 @llvm.abs.i64(i64 %0, i1 false)
  call void @llvm.lifetime.start.p0(i64 64, ptr nonnull %2) #10
  call void @llvm.lifetime.start.p0(i64 128, ptr nonnull %3) #10
  %5 = sdiv i64 %4, 3600
  %6 = call i32 (ptr, i64, ptr, ...) @pg_snprintf(ptr noundef nonnull %2, i64 noundef 64, ptr noundef nonnull @.str.3, i64 noundef %5) #10
  %7 = srem i64 %4, 3600
  %.not = icmp eq i64 %7, 0
  br i1 %.not, label %20, label %8

8:                                                ; preds = %1
  %9 = call i64 @strlen(ptr noundef nonnull dereferenceable(1) %2) #11
  %10 = getelementptr inbounds nuw i8, ptr %2, i64 %9
  %11 = sub i64 64, %9
  %.lhs.trunc = trunc nsw i64 %7 to i16
  %12 = sdiv i16 %.lhs.trunc, 60
  %.sext = sext i16 %12 to i64
  %13 = call i32 (ptr, i64, ptr, ...) @pg_snprintf(ptr noundef nonnull %10, i64 noundef %11, ptr noundef nonnull @.str.4, i64 noundef %.sext) #10
  %14 = srem i16 %.lhs.trunc, 60
  %.not12 = icmp eq i16 %14, 0
  br i1 %.not12, label %20, label %15

15:                                               ; preds = %8
  %.sext14 = sext i16 %14 to i64
  %16 = call i64 @strlen(ptr noundef nonnull dereferenceable(1) %2) #11
  %17 = getelementptr inbounds nuw i8, ptr %2, i64 %16
  %18 = sub i64 64, %16
  %19 = call i32 (ptr, i64, ptr, ...) @pg_snprintf(ptr noundef nonnull %17, i64 noundef %18, ptr noundef nonnull @.str.4, i64 noundef %.sext14) #10
  br label %20

20:                                               ; preds = %8, %15, %1
  %21 = icmp sgt i64 %0, 0
  %.str.5..str.6 = select i1 %21, ptr @.str.5, ptr @.str.6
  %22 = call i32 (ptr, i64, ptr, ...) @pg_snprintf(ptr noundef nonnull %3, i64 noundef 128, ptr noundef nonnull %.str.5..str.6, ptr noundef nonnull %2, ptr noundef nonnull %2) #10
  %23 = call ptr @pg_tzset(ptr noundef nonnull %3)
  call void @llvm.lifetime.end.p0(i64 128, ptr nonnull %3) #10
  call void @llvm.lifetime.end.p0(i64 64, ptr nonnull %2) #10
  ret ptr %23
}